target datalayout = "e-m:e-p270:32:32-p271:32:32-p272:64:64-i64:64-i128:128-f80:128-n8:16:32:64-S128"
target triple = "x86_64-pc-linux-gnu"

%struct.lean_string_object = type { %struct.lean_object, i64, i64, i64, [0 x i8] }
%struct.lean_object = type { i32, i32 }
%struct.lean_array_object = type { %struct.lean_object, i64, i64, [0 x ptr] }
%struct.lean_sarray_object = type { %struct.lean_object, i64, i64, [0 x i8] }

; Function Attrs: inlinehint mustprogress nounwind uwtable
define internal noundef ptr @_ZL14lean_to_stringP11lean_object(ptr noundef %0) #9 {
  %2 = alloca ptr, align 8
  store ptr %0, ptr %2, align 8, !tbaa !3
  %3 = load ptr, ptr %2, align 8, !tbaa !3
  ret ptr %3
}

; Function Attrs: inlinehint mustprogress nounwind uwtable
define internal noundef ptr @_ZL14lean_to_sarrayP11lean_object(ptr noundef %0) #9 {
  %2 = alloca ptr, align 8
  store ptr %0, ptr %2, align 8, !tbaa !3
  %3 = load ptr, ptr %2, align 8, !tbaa !3
  ret ptr %3
}

; Function Attrs: inlinehint mustprogress nounwind uwtable
define internal noundef i32 @_ZL14lean_ptr_otherP11lean_object(ptr noundef %0) #9 {
  %2 = alloca ptr, align 8
  store ptr %0, ptr %2, align 8, !tbaa !3
  %3 = load ptr, ptr %2, align 8, !tbaa !3
  %4 = getelementptr inbounds nuw %struct.lean_object, ptr %3, i32 0, i32 1
  %5 = load i32, ptr %4, align 4
  %6 = lshr i32 %5, 16
  %7 = and i32 %6, 255
  ret i32 %7
}

; Function Attrs: inlinehint mustprogress nounwind uwtable
define internal noundef ptr @_ZL13lean_to_arrayP11lean_object(ptr noundef %0) #9 {
  %2 = alloca ptr, align 8
  store ptr %0, ptr %2, align 8, !tbaa !3
  %3 = load ptr, ptr %2, align 8, !tbaa !3
  ret ptr %3
}

; Function Attrs: inlinehint mustprogress uwtable
define internal noundef i64 @_ZL20lean_string_capacityP11lean_object(ptr noundef %0) #3 {
  %2 = alloca ptr, align 8
  store ptr %0, ptr %2, align 8, !tbaa !3
  %3 = load ptr, ptr %2, align 8, !tbaa !3
  %4 = call noundef ptr @_ZL14lean_to_stringP11lean_object(ptr noundef %3)
  %5 = getelementptr inbounds nuw %struct.lean_string_object, ptr %4, i32 0, i32 2
  %6 = load i64, ptr %5, align 8, !tbaa !7
  ret i64 %6
}

; Function Attrs: inlinehint mustprogress uwtable
define internal noundef i64 @_ZL20lean_sarray_capacityP11lean_object(ptr noundef %0) #3 {
  %2 = alloca ptr, align 8
  store ptr %0, ptr %2, align 8, !tbaa !3
  %3 = load ptr, ptr %2, align 8, !tbaa !3
  %4 = call noundef ptr @_ZL14lean_to_sarrayP11lean_object(ptr noundef %3)
  %5 = getelementptr inbounds nuw %struct.lean_sarray_object, ptr %4, i32 0, i32 2
  %6 = load i64, ptr %5, align 8, !tbaa !7
  ret i64 %6
}

; Function Attrs: inlinehint mustprogress nounwind uwtable
define internal noundef i32 @_ZL21lean_sarray_elem_sizeP11lean_object(ptr noundef %0) #9 {
  %2 = alloca ptr, align 8
  store ptr %0, ptr %2, align 8, !tbaa !3
  %3 = load ptr, ptr %2, align 8, !tbaa !3
  %4 = call noundef i32 @_ZL14lean_ptr_otherP11lean_object(ptr noundef %3)
  ret i32 %4
}

; Function Attrs: inlinehint mustprogress uwtable
define internal noundef i64 @_ZL19lean_array_capacityP11lean_object(ptr noundef %0) #3 {
  %2 = alloca ptr, align 8
  store ptr %0, ptr %2, align 8, !tbaa !3
  %3 = load ptr, ptr %2, align 8, !tbaa !3
  %4 = call noundef ptr @_ZL13lean_to_arrayP11lean_object(ptr noundef %3)
  %5 = getelementptr inbounds nuw %struct.lean_array_object, ptr %4, i32 0, i32 2
  %6 = load i64, ptr %5, align 8, !tbaa !7
  ret i64 %6
}

; Function Attrs: inlinehint mustprogress nounwind uwtable
define internal noundef i32 @_ZL22lean_small_object_sizeP11lean_object(ptr noundef %0) #9 {
  %2 = alloca ptr, align 8
  store ptr %0, ptr %2, align 8, !tbaa !3
  %3 = load ptr, ptr %2, align 8, !tbaa !3
  %4 = getelementptr inbounds nuw %struct.lean_object, ptr %3, i32 0, i32 1
  %5 = load i32, ptr %4, align 4
  %6 = and i32 %5, 65535
  ret i32 %6
}

; Function Attrs: inlinehint mustprogress uwtable
define internal noundef i64 @_ZL21lean_string_byte_sizeP11lean_object(ptr noundef %0) #3 {
  %2 = alloca ptr, align 8
  store ptr %0, ptr %2, align 8, !tbaa !3
  %3 = load ptr, ptr %2, align 8, !tbaa !3
  %4 = call noundef i64 @_ZL20lean_string_capacityP11lean_object(ptr noundef %3)
  %5 = add i64 32, %4
  ret i64 %5
}

; Function Attrs: inlinehint mustprogress uwtable
define internal noundef i64 @_ZL21lean_sarray_byte_sizeP11lean_object(ptr noundef %0) #3 {
  %2 = alloca ptr, align 8
  store ptr %0, ptr %2, align 8, !tbaa !3
  %3 = load ptr, ptr %2, align 8, !tbaa !3
  %4 = call noundef i32 @_ZL21lean_sarray_elem_sizeP11lean_object(ptr noundef %3)
  %5 = zext i32 %4 to i64
  %6 = load ptr, ptr %2, align 8, !tbaa !3
  %7 = call noundef i64 @_ZL20lean_sarray_capacityP11lean_object(ptr noundef %6)
  %8 = mul i64 %5, %7
  %9 = add i64 24, %8
  ret i64 %9
}

; Function Attrs: inlinehint mustprogress uwtable
define internal noundef i64 @_ZL20lean_array_byte_sizeP11lean_object(ptr noundef %0) #3 {
  %2 = alloca ptr, align 8
  store ptr %0, ptr %2, align 8, !tbaa !3
  %3 = load ptr, ptr %2, align 8, !tbaa !3
  %4 = call noundef i64 @_ZL19lean_array_capacityP11lean_object(ptr noundef %3)
  %5 = mul i64 8, %4
  %6 = add i64 24, %5
  ret i64 %6
}

; Function Attrs: inlinehint mustprogress nounwind uwtable
define internal noundef zeroext i8 @_ZL12lean_ptr_tagP11lean_object(ptr noundef %0) #9 {
  %2 = alloca ptr, align 8
  store ptr %0, ptr %2, align 8, !tbaa !3
  %3 = load ptr, ptr %2, align 8, !tbaa !3
  %4 = getelementptr inbounds nuw %struct.lean_object, ptr %3, i32 0, i32 1
  %5 = load i32, ptr %4, align 4
  %6 = lshr i32 %5, 24
  %7 = trunc i32 %6 to i8
  ret i8 %7
}

; Function Attrs: mustprogress uwtable
define i64 @lean_object_byte_size(ptr noundef %0) #0 {
  %2 = alloca i64, align 8
  %3 = alloca ptr, align 8
  store ptr %0, ptr %3, align 8, !tbaa !3
  %4 = load ptr, ptr %3, align 8, !tbaa !3
  %5 = getelementptr inbounds nuw %struct.lean_object, ptr %4, i32 0, i32 1
  %6 = load i32, ptr %5, align 4
  %7 = and i32 %6, 65535
  %8 = icmp eq i32 %7, 0
  br i1 %8, label %9, label %26

9:                                                ; preds = %1
  %10 = load ptr, ptr %3, align 8, !tbaa !3
  %11 = call noundef zeroext i8 @_ZL12lean_ptr_tagP11lean_object(ptr noundef %10)
  %12 = zext i8 %11 to i32
  switch i32 %12, label %22 [
    i32 246, label %13
    i32 248, label %16
    i32 249, label %19
  ]

13:                                               ; preds = %9
  %14 = load ptr, ptr %3, align 8, !tbaa !3
  %15 = call noundef i64 @_ZL20lean_array_byte_sizeP11lean_object(ptr noundef %14)
  store i64 %15, ptr %2, align 8
  br label %45

16:                                               ; preds = %9
  %17 = load ptr, ptr %3, align 8, !tbaa !3
  %18 = call noundef i64 @_ZL21lean_sarray_byte_sizeP11lean_object(ptr noundef %17)
  store i64 %18, ptr %2, align 8
  br label %45

19:                                               ; preds = %9
  %20 = load ptr, ptr %3, align 8, !tbaa !3
  %21 = call noundef i64 @_ZL21lean_string_byte_sizeP11lean_object(ptr noundef %20)
  store i64 %21, ptr %2, align 8
  br label %45

22:                                               ; preds = %9
  %23 = load ptr, ptr %3, align 8, !tbaa !3
  %24 = call noundef i32 @_ZL22lean_small_object_sizeP11lean_object(ptr noundef %23)
  %25 = zext i32 %24 to i64
  store i64 %25, ptr %2, align 8
  br label %45

26:                                               ; preds = %1
  %27 = load ptr, ptr %3, align 8, !tbaa !3
  %28 = call noundef zeroext i8 @_ZL12lean_ptr_tagP11lean_object(ptr noundef %27)
  %29 = zext i8 %28 to i32
  switch i32 %29, label %39 [
    i32 246, label %30
    i32 248, label %33
    i32 249, label %36
  ]

30:                                               ; preds = %26
  %31 = load ptr, ptr %3, align 8, !tbaa !3
  %32 = call noundef i64 @_ZL20lean_array_byte_sizeP11lean_object(ptr noundef %31)
  store i64 %32, ptr %2, align 8
  br label %45

33:                                               ; preds = %26
  %34 = load ptr, ptr %3, align 8, !tbaa !3
  %35 = call noundef i64 @_ZL21lean_sarray_byte_sizeP11lean_object(ptr noundef %34)
  store i64 %35, ptr %2, align 8
  br label %45

36:                                               ; preds = %26
  %37 = load ptr, ptr %3, align 8, !tbaa !3
  %38 = call noundef i64 @_ZL21lean_string_byte_sizeP11lean_object(ptr noundef %37)
  store i64 %38, ptr %2, align 8
  br label %45

39:                                               ; preds = %26
  %40 = load ptr, ptr %3, align 8, !tbaa !3
  %41 = getelementptr inbounds nuw %struct.lean_object, ptr %40, i32 0, i32 1
  %42 = load i32, ptr %41, align 4
  %43 = and i32 %42, 65535
  %44 = zext i32 %43 to i64
  store i64 %44, ptr %2, align 8
  br label %45

45:                                               ; preds = %39, %36, %33, %30, %22, %19, %16, %13
  %46 = load i64, ptr %2, align 8
  ret i64 %46
}