; Function Attrs: mustprogress nofree norecurse nosync nounwind willreturn memory(argmem: read) uwtable
define i64 @lean_object_byte_size(ptr noundef readonly captures(none) %0) local_unnamed_addr #10 {
  %2 = getelementptr inbounds nuw i8, ptr %0, i64 4
  %3 = load i32, ptr %2, align 4
  %4 = and i32 %3, 65535
  %5 = icmp eq i32 %4, 0
  %6 = lshr i32 %3, 24
  %7 = trunc nuw i32 %6 to i8
  br i1 %5, label %8, label %23

8:                                                ; preds = %1
  switch i8 %7, label %40 [
    i8 -10, label %9
    i8 -8, label %13
    i8 -7, label %20
  ]

9:                                                ; preds = %8
  %10 = getelementptr i8, ptr %0, i64 16
  %.val12 = load i64, ptr %10, align 8, !tbaa !30
  %11 = shl i64 %.val12, 3
  %12 = add i64 %11, 24
  br label %40

13:                                               ; preds = %8
  %14 = getelementptr i8, ptr %0, i64 16
  %.val15 = load i64, ptr %14, align 8, !tbaa !30
  %15 = lshr exact i32 %3, 16
  %16 = and i32 %15, 255
  %17 = zext nneg i32 %16 to i64
  %18 = mul i64 %.val15, %17
  %19 = add i64 %18, 24
  br label %40

20:                                               ; preds = %8
  %21 = getelementptr i8, ptr %0, i64 16
  %.val18 = load i64, ptr %21, align 8, !tbaa !30
  %22 = add i64 %.val18, 32
  br label %40

23:                                               ; preds = %1
  switch i8 %7, label %38 [
    i8 -10, label %24
    i8 -8, label %28
    i8 -7, label %35
  ]

24:                                               ; preds = %23
  %25 = getelementptr i8, ptr %0, i64 16
  %.val13 = load i64, ptr %25, align 8, !tbaa !30
  %26 = shl i64 %.val13, 3
  %27 = add i64 %26, 24
  br label %40

28:                                               ; preds = %23
  %29 = getelementptr i8, ptr %0, i64 16
  %.val17 = load i64, ptr %29, align 8, !tbaa !30
  %30 = lshr i32 %3, 16
  %31 = and i32 %30, 255
  %32 = zext nneg i32 %31 to i64
  %33 = mul i64 %.val17, %32
  %34 = add i64 %33, 24
  br label %40

35:                                               ; preds = %23
  %36 = getelementptr i8, ptr %0, i64 16
  %.val19 = load i64, ptr %36, align 8, !tbaa !30
  %37 = add i64 %.val19, 32
  br label %40

38:                                               ; preds = %23
  %39 = zext nneg i32 %4 to i64
  br label %40

40:                                               ; preds = %8, %38, %35, %28, %24, %20, %13, %9
  %.0 = phi i64 [ %22, %20 ], [ %19, %13 ], [ %12, %9 ], [ %39, %38 ], [ %37, %35 ], [ %34, %28 ], [ %27, %24 ], [ 0, %8 ]
  ret i64 %.0
}